target datalayout = "e-m:e-p270:32:32-p271:32:32-p272:64:64-i64:64-i128:128-f80:128-n8:16:32:64-S128"
target triple = "x86_64-pc-linux-gnu"

; Function Attrs: nounwind uwtable
define dso_local i32 @digits10(i64 noundef %0) #0 {
  %2 = alloca i32, align 4
  %3 = alloca i64, align 8
  store i64 %0, ptr %3, align 8, !tbaa !29
  %4 = load i64, ptr %3, align 8, !tbaa !29
  %5 = icmp ult i64 %4, 10
  br i1 %5, label %6, label %7

6:                                                ; preds = %1
  store i32 1, ptr %2, align 4
  br label %56

7:                                                ; preds = %1
  %8 = load i64, ptr %3, align 8, !tbaa !29
  %9 = icmp ult i64 %8, 100
  br i1 %9, label %10, label %11

10:                                               ; preds = %7
  store i32 2, ptr %2, align 4
  br label %56

11:                                               ; preds = %7
  %12 = load i64, ptr %3, align 8, !tbaa !29
  %13 = icmp ult i64 %12, 1000
  br i1 %13, label %14, label %15

14:                                               ; preds = %11
  store i32 3, ptr %2, align 4
  br label %56

15:                                               ; preds = %11
  %16 = load i64, ptr %3, align 8, !tbaa !29
  %17 = icmp ult i64 %16, 1000000000000
  br i1 %17, label %18, label %51

18:                                               ; preds = %15
  %19 = load i64, ptr %3, align 8, !tbaa !29
  %20 = icmp ult i64 %19, 100000000
  br i1 %20, label %21, label %38

21:                                               ; preds = %18
  %22 = load i64, ptr %3, align 8, !tbaa !29
  %23 = icmp ult i64 %22, 1000000
  br i1 %23, label %24, label %33

24:                                               ; preds = %21
  %25 = load i64, ptr %3, align 8, !tbaa !29
  %26 = icmp ult i64 %25, 10000
  br i1 %26, label %27, label %28

27:                                               ; preds = %24
  store i32 4, ptr %2, align 4
  br label %56

28:                                               ; preds = %24
  %29 = load i64, ptr %3, align 8, !tbaa !29
  %30 = icmp uge i64 %29, 100000
  %31 = zext i1 %30 to i32
  %32 = add nsw i32 5, %31
  store i32 %32, ptr %2, align 4
  br label %56

33:                                               ; preds = %21
  %34 = load i64, ptr %3, align 8, !tbaa !29
  %35 = icmp uge i64 %34, 10000000
  %36 = zext i1 %35 to i32
  %37 = add nsw i32 7, %36
  store i32 %37, ptr %2, align 4
  br label %56

38:                                               ; preds = %18
  %39 = load i64, ptr %3, align 8, !tbaa !29
  %40 = icmp ult i64 %39, 10000000000
  br i1 %40, label %41, label %46

41:                                               ; preds = %38
  %42 = load i64, ptr %3, align 8, !tbaa !29
  %43 = icmp uge i64 %42, 1000000000
  %44 = zext i1 %43 to i32
  %45 = add nsw i32 9, %44
  store i32 %45, ptr %2, align 4
  br label %56

46:                                               ; preds = %38
  %47 = load i64, ptr %3, align 8, !tbaa !29
  %48 = icmp uge i64 %47, 100000000000
  %49 = zext i1 %48 to i32
  %50 = add nsw i32 11, %49
  store i32 %50, ptr %2, align 4
  br label %56

51:                                               ; preds = %15
  %52 = load i64, ptr %3, align 8, !tbaa !29
  %53 = udiv i64 %52, 1000000000000
  %54 = call i32 @digits10(i64 noundef %53)
  %55 = add i32 12, %54
  store i32 %55, ptr %2, align 4
  br label %56

56:                                               ; preds = %51, %46, %41, %33, %28, %27, %14, %10, %6
  %57 = load i32, ptr %2, align 4
  ret i32 %57
}

; Function Attrs: nounwind uwtable
define dso_local i32 @sdigits10(i64 noundef %0) #0 {
  %2 = alloca i32, align 4
  %3 = alloca i64, align 8
  %4 = alloca i64, align 8
  store i64 %0, ptr %3, align 8, !tbaa !29
  %5 = load i64, ptr %3, align 8, !tbaa !29
  %6 = icmp slt i64 %5, 0
  br i1 %6, label %7, label %19

7:                                                ; preds = %1
  call void @llvm.lifetime.start.p0(i64 8, ptr %4) #13
  %8 = load i64, ptr %3, align 8, !tbaa !29
  %9 = icmp ne i64 %8, -9223372036854775808
  br i1 %9, label %10, label %13

10:                                               ; preds = %7
  %11 = load i64, ptr %3, align 8, !tbaa !29
  %12 = sub nsw i64 0, %11
  br label %14

13:                                               ; preds = %7
  br label %14

14:                                               ; preds = %13, %10
  %15 = phi i64 [ %12, %10 ], [ -9223372036854775808, %13 ]
  store i64 %15, ptr %4, align 8, !tbaa !29
  %16 = load i64, ptr %4, align 8, !tbaa !29
  %17 = call i32 @digits10(i64 noundef %16)
  %18 = add i32 %17, 1
  store i32 %18, ptr %2, align 4
  call void @llvm.lifetime.end.p0(i64 8, ptr %4) #13
  br label %22

19:                                               ; preds = %1
  %20 = load i64, ptr %3, align 8, !tbaa !29
  %21 = call i32 @digits10(i64 noundef %20)
  store i32 %21, ptr %2, align 4
  br label %22

22:                                               ; preds = %19, %14
  %23 = load i32, ptr %2, align 4
  ret i32 %23
}