; Function Attrs: nofree norecurse nosync nounwind memory(none) uwtable
define dso_local i32 @sdigits10(i64 noundef %0) local_unnamed_addr #13 {
  %2 = icmp slt i64 %0, 0
  br i1 %2, label %3, label %35

3:                                                ; preds = %1
  %4 = sub i64 0, %0
  %5 = icmp ult i64 %4, 10
  br i1 %5, label %digits10.exit, label %.lr.ph.i

.lr.ph.i:                                         ; preds = %3, %tailrecurse.i
  %.tr19.i = phi i64 [ %31, %tailrecurse.i ], [ %4, %3 ]
  %accumulator.tr18.i = phi i32 [ %32, %tailrecurse.i ], [ 0, %3 ]
  %6 = icmp ult i64 %.tr19.i, 100
  br i1 %6, label %digits10.exit, label %7

7:                                                ; preds = %.lr.ph.i
  %8 = icmp ult i64 %.tr19.i, 1000
  br i1 %8, label %digits10.exit, label %9

9:                                                ; preds = %7
  %10 = icmp ult i64 %.tr19.i, 1000000000000
  br i1 %10, label %11, label %tailrecurse.i

11:                                               ; preds = %9
  %12 = icmp samesign ult i64 %.tr19.i, 100000000
  br i1 %12, label %13, label %23

13:                                               ; preds = %11
  %14 = icmp samesign ult i64 %.tr19.i, 1000000
  br i1 %14, label %15, label %20

15:                                               ; preds = %13
  %16 = icmp samesign ult i64 %.tr19.i, 10000
  br i1 %16, label %digits10.exit, label %17

17:                                               ; preds = %15
  %18 = icmp samesign ugt i64 %.tr19.i, 99999
  %19 = select i1 %18, i32 6, i32 5
  br label %digits10.exit

20:                                               ; preds = %13
  %21 = icmp samesign ugt i64 %.tr19.i, 9999999
  %22 = select i1 %21, i32 8, i32 7
  br label %digits10.exit

23:                                               ; preds = %11
  %24 = icmp samesign ult i64 %.tr19.i, 10000000000
  br i1 %24, label %25, label %28

25:                                               ; preds = %23
  %26 = icmp samesign ugt i64 %.tr19.i, 999999999
  %27 = select i1 %26, i32 10, i32 9
  br label %digits10.exit

28:                                               ; preds = %23
  %29 = icmp samesign ugt i64 %.tr19.i, 99999999999
  %30 = select i1 %29, i32 12, i32 11
  br label %digits10.exit

tailrecurse.i:                                    ; preds = %9
  %31 = udiv i64 %.tr19.i, 1000000000000
  %32 = add i32 %accumulator.tr18.i, 12
  %33 = icmp ult i64 %.tr19.i, 10000000000000
  br i1 %33, label %digits10.exit, label %.lr.ph.i

digits10.exit:                                    ; preds = %.lr.ph.i, %7, %tailrecurse.i, %3, %15, %17, %20, %25, %28
  %accumulator.tr17.i = phi i32 [ %accumulator.tr18.i, %17 ], [ %accumulator.tr18.i, %20 ], [ %accumulator.tr18.i, %25 ], [ %accumulator.tr18.i, %28 ], [ %accumulator.tr18.i, %15 ], [ 0, %3 ], [ %accumulator.tr18.i, %7 ], [ %accumulator.tr18.i, %.lr.ph.i ], [ %32, %tailrecurse.i ]
  %.0.i = phi i32 [ %19, %17 ], [ %22, %20 ], [ %27, %25 ], [ %30, %28 ], [ 4, %15 ], [ 1, %3 ], [ 3, %7 ], [ 2, %.lr.ph.i ], [ 1, %tailrecurse.i ]
  %accumulator.ret.tr.i = add i32 %accumulator.tr17.i, 1
  %34 = add i32 %accumulator.ret.tr.i, %.0.i
  br label %65

35:                                               ; preds = %1
  %36 = icmp samesign ult i64 %0, 10
  br i1 %36, label %digits10.exit14, label %.lr.ph.i7

.lr.ph.i7:                                        ; preds = %35, %tailrecurse.i10
  %.tr19.i8 = phi i64 [ %62, %tailrecurse.i10 ], [ %0, %35 ]
  %accumulator.tr18.i9 = phi i32 [ %63, %tailrecurse.i10 ], [ 0, %35 ]
  %37 = icmp ult i64 %.tr19.i8, 100
  br i1 %37, label %digits10.exit14, label %38

38:                                               ; preds = %.lr.ph.i7
  %39 = icmp ult i64 %.tr19.i8, 1000
  br i1 %39, label %digits10.exit14, label %40

40:                                               ; preds = %38
  %41 = icmp ult i64 %.tr19.i8, 1000000000000
  br i1 %41, label %42, label %tailrecurse.i10

42:                                               ; preds = %40
  %43 = icmp samesign ult i64 %.tr19.i8, 100000000
  br i1 %43, label %44, label %54

44:                                               ; preds = %42
  %45 = icmp samesign ult i64 %.tr19.i8, 1000000
  br i1 %45, label %46, label %51

46:                                               ; preds = %44
  %47 = icmp samesign ult i64 %.tr19.i8, 10000
  br i1 %47, label %digits10.exit14, label %48

48:                                               ; preds = %46
  %49 = icmp samesign ugt i64 %.tr19.i8, 99999
  %50 = select i1 %49, i32 6, i32 5
  br label %digits10.exit14

51:                                               ; preds = %44
  %52 = icmp samesign ugt i64 %.tr19.i8, 9999999
  %53 = select i1 %52, i32 8, i32 7
  br label %digits10.exit14

54:                                               ; preds = %42
  %55 = icmp samesign ult i64 %.tr19.i8, 10000000000
  br i1 %55, label %56, label %59

56:                                               ; preds = %54
  %57 = icmp samesign ugt i64 %.tr19.i8, 999999999
  %58 = select i1 %57, i32 10, i32 9
  br label %digits10.exit14

59:                                               ; preds = %54
  %60 = icmp samesign ugt i64 %.tr19.i8, 99999999999
  %61 = select i1 %60, i32 12, i32 11
  br label %digits10.exit14

tailrecurse.i10:                                  ; preds = %40
  %62 = udiv i64 %.tr19.i8, 1000000000000
  %63 = add i32 %accumulator.tr18.i9, 12
  %64 = icmp ult i64 %.tr19.i8, 10000000000000
  br i1 %64, label %digits10.exit14, label %.lr.ph.i7

digits10.exit14:                                  ; preds = %.lr.ph.i7, %38, %tailrecurse.i10, %35, %46, %48, %51, %56, %59
  %accumulator.tr17.i11 = phi i32 [ %accumulator.tr18.i9, %48 ], [ %accumulator.tr18.i9, %51 ], [ %accumulator.tr18.i9, %56 ], [ %accumulator.tr18.i9, %59 ], [ %accumulator.tr18.i9, %46 ], [ 0, %35 ], [ %accumulator.tr18.i9, %38 ], [ %accumulator.tr18.i9, %.lr.ph.i7 ], [ %63, %tailrecurse.i10 ]
  %.0.i12 = phi i32 [ %50, %48 ], [ %53, %51 ], [ %58, %56 ], [ %61, %59 ], [ 4, %46 ], [ 1, %35 ], [ 3, %38 ], [ 2, %.lr.ph.i7 ], [ 1, %tailrecurse.i10 ]
  %accumulator.ret.tr.i13 = add i32 %.0.i12, %accumulator.tr17.i11
  br label %65

65:                                               ; preds = %digits10.exit14, %digits10.exit
  %.0 = phi i32 [ %34, %digits10.exit ], [ %accumulator.ret.tr.i13, %digits10.exit14 ]
  ret i32 %.0
}